(lp1
(I1
I33
tp2
a(I2
I33
tp3
a(I3
I33
tp4
a(I4
I32
tp5
a(I5
I32
tp6
a(I6
I34
tp7
a(I8
I32
tp8
a(I9
I32
tp9
a(I10
I65
tp10
a(I11
I53
tp11
a(I13
I46
tp12
a(I14
I33
tp13
a(I15
I37
tp14
a(I16
I42
tp15
a(I17
I33
tp16
a(I18
I50
tp17
a(I19
I55
tp18
a(I20
I32
tp19
a(I21
I38
tp20
a(I22
I42
tp21
a(I23
I34
tp22
a(I24
I40
tp23
a(I25
I37
tp24
a(I26
I72
tp25
a(I27
I36
tp26
a(I28
I32
tp27
a(I29
I35
tp28
a(I30
I33
tp29
a(I31
I37
tp30
a(I32
I33
tp31
a(I33
I34
tp32
a(I34
I50
tp33
a(I35
I49
tp34
a(I36
I37
tp35
a(I37
I36
tp36
a(I38
I34
tp37
a(I39
I37
tp38
a(I40
I59
tp39
a(I41
I32
tp40
a(I42
I32
tp41
a(I43
I34
tp42
a(I44
I69
tp43
a(I45
I41
tp44
a(I46
I58
tp45
a(I47
I48
tp46
a(I48
I32
tp47
a(I50
I34
tp48
a(I51
I34
tp49
a(I52
I44
tp50
a(I53
I41
tp51
a(I54
I85
tp52
a(I55
I36
tp53
a(I57
I40
tp54
a(I58
I33
tp55
a(I59
I33
tp56
a(I61
I34
tp57
a(I62
I37
tp58
a(I63
I34
tp59
a(I64
I33
tp60
a(I65
I32
tp61
a(I66
I37
tp62
a(I67
I32
tp63
a(I68
I32
tp64
a(I69
I36
tp65
a(I70
I32
tp66
a(I71
I55
tp67
a(I72
I33
tp68
a(I73
I34
tp69
a(I74
I40
tp70
a(I75
I33
tp71
a(I76
I44
tp72
a(I77
I34
tp73
a(I78
I32
tp74
a(I79
I37
tp75
a(I80
I32
tp76
a(I81
I33
tp77
a(I83
I33
tp78
a(I84
I39
tp79
a(I85
I32
tp80
a(I86
I47
tp81
a(I87
I33
tp82
a(I88
I47
tp83
a(I89
I44
tp84
a(I90
I48
tp85
a(I91
I33
tp86
a(I92
I37
tp87
a(I93
I33
tp88
a(I94
I32
tp89
a(I95
I34
tp90
a(I96
I35
tp91
a(I98
I36
tp92
a(I99
I33
tp93
a.